target datalayout = "e-m:e-p270:32:32-p271:32:32-p272:64:64-i64:64-i128:128-f80:128-n8:16:32:64-S128"
target triple = "x86_64-pc-linux-gnu"

%struct.crypto_ex_data_st = type { ptr }

; Function Attrs: nounwind uwtable
define hidden ptr @CRYPTO_get_ex_data(ptr noundef %0, i32 noundef %1) #0 {
  %3 = alloca ptr, align 8
  %4 = alloca ptr, align 8
  %5 = alloca i32, align 4
  store ptr %0, ptr %4, align 8, !tbaa !28
  store i32 %1, ptr %5, align 4, !tbaa !14
  %6 = load ptr, ptr %4, align 8, !tbaa !28
  %7 = getelementptr inbounds nuw %struct.crypto_ex_data_st, ptr %6, i32 0, i32 0
  %8 = load ptr, ptr %7, align 8, !tbaa !30
  %9 = icmp eq ptr %8, null
  br i1 %9, label %21, label %10

10:                                               ; preds = %2
  %11 = load i32, ptr %5, align 4, !tbaa !14
  %12 = icmp slt i32 %11, 0
  br i1 %12, label %21, label %13

13:                                               ; preds = %10
  %14 = load i32, ptr %5, align 4, !tbaa !14
  %15 = sext i32 %14 to i64
  %16 = load ptr, ptr %4, align 8, !tbaa !28
  %17 = getelementptr inbounds nuw %struct.crypto_ex_data_st, ptr %16, i32 0, i32 0
  %18 = load ptr, ptr %17, align 8, !tbaa !30
  %19 = call i64 @sk_num(ptr noundef %18)
  %20 = icmp uge i64 %15, %19
  br i1 %20, label %21, label %22

21:                                               ; preds = %13, %10, %2
  store ptr null, ptr %3, align 8
  br label %29

22:                                               ; preds = %13
  %23 = load ptr, ptr %4, align 8, !tbaa !28
  %24 = getelementptr inbounds nuw %struct.crypto_ex_data_st, ptr %23, i32 0, i32 0
  %25 = load ptr, ptr %24, align 8, !tbaa !30
  %26 = load i32, ptr %5, align 4, !tbaa !14
  %27 = sext i32 %26 to i64
  %28 = call ptr @sk_value(ptr noundef %25, i64 noundef %27)
  store ptr %28, ptr %3, align 8
  br label %29

29:                                               ; preds = %22, %21
  %30 = load ptr, ptr %3, align 8
  ret ptr %30
}