; Function Attrs: nounwind uwtable
define hidden ptr @CRYPTO_get_ex_data(ptr noundef readonly captures(none) %0, i32 noundef %1) local_unnamed_addr #0 {
  %3 = load ptr, ptr %0, align 8, !tbaa !22
  %4 = icmp eq ptr %3, null
  %5 = icmp slt i32 %1, 0
  %or.cond = or i1 %5, %4
  br i1 %or.cond, label %12, label %6

6:                                                ; preds = %2
  %7 = zext nneg i32 %1 to i64
  %8 = tail call i64 @sk_num(ptr noundef nonnull %3) #8
  %.not = icmp ugt i64 %8, %7
  br i1 %.not, label %9, label %12

9:                                                ; preds = %6
  %10 = load ptr, ptr %0, align 8, !tbaa !22
  %11 = tail call ptr @sk_value(ptr noundef %10, i64 noundef %7) #8
  br label %12

12:                                               ; preds = %2, %6, %9
  %.0 = phi ptr [ %11, %9 ], [ null, %6 ], [ null, %2 ]
  ret ptr %.0
}